target datalayout = "e-m:e-p270:32:32-p271:32:32-p272:64:64-i64:64-i128:128-f80:128-n8:16:32:64-S128"
target triple = "x86_64-pc-linux-gnu"

%struct.AVRational = type { i32, i32 }
%struct.AVPacket = type { ptr, i64, i64, ptr, i32, i32, i32, ptr, i32, i64, i64, ptr, ptr, %struct.AVRational }

; Function Attrs: inlinehint nounwind uwtable
define internal i64 @av_make_q(i32 noundef %0, i32 noundef %1) #2 {
  %3 = alloca %struct.AVRational, align 4
  %4 = alloca i32, align 4
  %5 = alloca i32, align 4
  store i32 %0, ptr %4, align 4, !tbaa !28
  store i32 %1, ptr %5, align 4, !tbaa !28
  %6 = getelementptr inbounds nuw %struct.AVRational, ptr %3, i32 0, i32 0
  %7 = load i32, ptr %4, align 4, !tbaa !28
  store i32 %7, ptr %6, align 4, !tbaa !29
  %8 = getelementptr inbounds nuw %struct.AVRational, ptr %3, i32 0, i32 1
  %9 = load i32, ptr %5, align 4, !tbaa !28
  store i32 %9, ptr %8, align 4, !tbaa !30
  %10 = load i64, ptr %3, align 4
  ret i64 %10
}

; Function Attrs: nounwind uwtable
define void @av_init_packet(ptr noundef %0) #0 {
  %2 = alloca ptr, align 8
  %3 = alloca %struct.AVRational, align 4
  store ptr %0, ptr %2, align 8, !tbaa !4
  %4 = load ptr, ptr %2, align 8, !tbaa !4
  %5 = getelementptr inbounds nuw %struct.AVPacket, ptr %4, i32 0, i32 1
  store i64 -9223372036854775808, ptr %5, align 8, !tbaa !9
  %6 = load ptr, ptr %2, align 8, !tbaa !4
  %7 = getelementptr inbounds nuw %struct.AVPacket, ptr %6, i32 0, i32 2
  store i64 -9223372036854775808, ptr %7, align 8, !tbaa !17
  %8 = load ptr, ptr %2, align 8, !tbaa !4
  %9 = getelementptr inbounds nuw %struct.AVPacket, ptr %8, i32 0, i32 10
  store i64 -1, ptr %9, align 8, !tbaa !18
  %10 = load ptr, ptr %2, align 8, !tbaa !4
  %11 = getelementptr inbounds nuw %struct.AVPacket, ptr %10, i32 0, i32 9
  store i64 0, ptr %11, align 8, !tbaa !19
  %12 = load ptr, ptr %2, align 8, !tbaa !4
  %13 = getelementptr inbounds nuw %struct.AVPacket, ptr %12, i32 0, i32 6
  store i32 0, ptr %13, align 8, !tbaa !20
  %14 = load ptr, ptr %2, align 8, !tbaa !4
  %15 = getelementptr inbounds nuw %struct.AVPacket, ptr %14, i32 0, i32 5
  store i32 0, ptr %15, align 4, !tbaa !21
  %16 = load ptr, ptr %2, align 8, !tbaa !4
  %17 = getelementptr inbounds nuw %struct.AVPacket, ptr %16, i32 0, i32 0
  store ptr null, ptr %17, align 8, !tbaa !22
  %18 = load ptr, ptr %2, align 8, !tbaa !4
  %19 = getelementptr inbounds nuw %struct.AVPacket, ptr %18, i32 0, i32 7
  store ptr null, ptr %19, align 8, !tbaa !23
  %20 = load ptr, ptr %2, align 8, !tbaa !4
  %21 = getelementptr inbounds nuw %struct.AVPacket, ptr %20, i32 0, i32 8
  store i32 0, ptr %21, align 8, !tbaa !24
  %22 = load ptr, ptr %2, align 8, !tbaa !4
  %23 = getelementptr inbounds nuw %struct.AVPacket, ptr %22, i32 0, i32 11
  store ptr null, ptr %23, align 8, !tbaa !25
  %24 = load ptr, ptr %2, align 8, !tbaa !4
  %25 = getelementptr inbounds nuw %struct.AVPacket, ptr %24, i32 0, i32 12
  store ptr null, ptr %25, align 8, !tbaa !26
  %26 = load ptr, ptr %2, align 8, !tbaa !4
  %27 = getelementptr inbounds nuw %struct.AVPacket, ptr %26, i32 0, i32 13
  call void @llvm.lifetime.start.p0(i64 8, ptr %3) #9
  %28 = call i64 @av_make_q(i32 noundef 0, i32 noundef 1)
  store i64 %28, ptr %3, align 4
  call void @llvm.memcpy.p0.p0.i64(ptr align 8 %27, ptr align 4 %3, i64 8, i1 false), !tbaa.struct !27
  call void @llvm.lifetime.end.p0(i64 8, ptr %3) #9
  ret void
}