; Function Attrs: mustprogress nofree norecurse nosync nounwind willreturn memory(argmem: write) uwtable
define void @av_init_packet(ptr noundef writeonly captures(none) initializes((0, 24), (36, 44), (48, 60), (64, 104)) %0) local_unnamed_addr #0 {
  %2 = getelementptr inbounds nuw i8, ptr %0, i64 8
  store i64 -9223372036854775808, ptr %2, align 8, !tbaa !4
  %3 = getelementptr inbounds nuw i8, ptr %0, i64 16
  store i64 -9223372036854775808, ptr %3, align 8, !tbaa !15
  %4 = getelementptr inbounds nuw i8, ptr %0, i64 72
  store i64 -1, ptr %4, align 8, !tbaa !16
  %5 = getelementptr inbounds nuw i8, ptr %0, i64 64
  store i64 0, ptr %5, align 8, !tbaa !17
  %6 = getelementptr inbounds nuw i8, ptr %0, i64 40
  store i32 0, ptr %6, align 8, !tbaa !18
  %7 = getelementptr inbounds nuw i8, ptr %0, i64 36
  store i32 0, ptr %7, align 4, !tbaa !19
  store ptr null, ptr %0, align 8, !tbaa !20
  %8 = getelementptr inbounds nuw i8, ptr %0, i64 48
  store ptr null, ptr %8, align 8, !tbaa !21
  %9 = getelementptr inbounds nuw i8, ptr %0, i64 56
  store i32 0, ptr %9, align 8, !tbaa !22
  %10 = getelementptr inbounds nuw i8, ptr %0, i64 80
  %11 = getelementptr inbounds nuw i8, ptr %0, i64 96
  tail call void @llvm.memset.p0.i64(ptr noundef nonnull align 8 dereferenceable(16) %10, i8 0, i64 16, i1 false)
  store i64 4294967296, ptr %11, align 8
  ret void
}